; Function Attrs: nounwind sspstrong uwtable
define internal fastcc range(i32 0, 2) i32 @inspect_peercred(i64 noundef %0, i64 noundef %1) unnamed_addr #0 {
  %3 = inttoptr i64 %0 to ptr
  %4 = getelementptr inbounds nuw i8, ptr %3, i64 16
  %5 = load i64, ptr %4, align 8, !tbaa !15
  %6 = icmp eq i64 %5, 12
  br i1 %6, label %7, label %14

7:                                                ; preds = %2
  %8 = load i64, ptr %3, align 8, !tbaa !13, !noalias !110
  %9 = and i64 %8, 8192
  %.not.i.i = icmp eq i64 %9, 0
  %10 = getelementptr inbounds nuw i8, ptr %3, i64 24
  br i1 %.not.i.i, label %RSTRING_PTR.exit, label %11

11:                                               ; preds = %7
  %.sroa.2.0.copyload.i = load ptr, ptr %10, align 8
  br label %RSTRING_PTR.exit

RSTRING_PTR.exit:                                 ; preds = %7, %11
  %.sroa.2.0.i = phi ptr [ %.sroa.2.0.copyload.i, %11 ], [ %10, %7 ]
  %.sroa.0.0.copyload = load i32, ptr %.sroa.2.0.i, align 1
  %.sroa.4.0..sroa.2.0.i.sroa_idx = getelementptr inbounds nuw i8, ptr %.sroa.2.0.i, i64 4
  %.sroa.4.0.copyload = load i32, ptr %.sroa.4.0..sroa.2.0.i.sroa_idx, align 1
  %.sroa.5.0..sroa.2.0.i.sroa_idx = getelementptr inbounds nuw i8, ptr %.sroa.2.0.i, i64 8
  %.sroa.5.0.copyload = load i32, ptr %.sroa.5.0..sroa.2.0.i.sroa_idx, align 1
  %12 = tail call i64 (i64, ptr, ...) @rb_str_catf(i64 noundef %1, ptr noundef nonnull @.str.34, i32 noundef %.sroa.0.0.copyload, i32 noundef %.sroa.4.0.copyload, i32 noundef %.sroa.5.0.copyload) #6
  %13 = tail call i64 @rb_str_cat(i64 noundef %1, ptr noundef nonnull @.str.35, i64 noundef 8) #6
  br label %14

14:                                               ; preds = %2, %RSTRING_PTR.exit
  %.0 = phi i32 [ 1, %RSTRING_PTR.exit ], [ 0, %2 ]
  ret i32 %.0
}